; Function Attrs: mustprogress nofree norecurse nosync nounwind willreturn memory(argmem: read) uwtable
define noundef zeroext i1 @_ZNK32pxrInternal_v0_24__pxrReserved__10GfMatrix2deqERKNS_10GfMatrix2fE(ptr noundef nonnull readonly align 8 captures(none) dereferenceable(32) %0, ptr noundef nonnull readonly align 4 captures(none) dereferenceable(16) %1) local_unnamed_addr #6 align 2 {
  %3 = load double, ptr %0, align 8
  %4 = load float, ptr %1, align 4
  %5 = fpext float %4 to double
  %6 = fcmp oeq double %3, %5
  br i1 %6, label %7, label %28

7:                                                ; preds = %2
  %8 = getelementptr inbounds nuw i8, ptr %0, i64 8
  %9 = load double, ptr %8, align 8
  %10 = getelementptr inbounds nuw i8, ptr %1, i64 4
  %11 = load float, ptr %10, align 4
  %12 = fpext float %11 to double
  %13 = fcmp oeq double %9, %12
  br i1 %13, label %14, label %28

14:                                               ; preds = %7
  %15 = getelementptr inbounds nuw i8, ptr %0, i64 16
  %16 = load double, ptr %15, align 8
  %17 = getelementptr inbounds nuw i8, ptr %1, i64 8
  %18 = load float, ptr %17, align 4
  %19 = fpext float %18 to double
  %20 = fcmp oeq double %16, %19
  br i1 %20, label %21, label %28

21:                                               ; preds = %14
  %22 = getelementptr inbounds nuw i8, ptr %0, i64 24
  %23 = load double, ptr %22, align 8
  %24 = getelementptr inbounds nuw i8, ptr %1, i64 12
  %25 = load float, ptr %24, align 4
  %26 = fpext float %25 to double
  %27 = fcmp oeq double %23, %26
  br label %28

28:                                               ; preds = %21, %14, %7, %2
  %29 = phi i1 [ false, %14 ], [ false, %7 ], [ false, %2 ], [ %27, %21 ]
  ret i1 %29
}